Certificate:
    Data:
        Version: 3 (0x2)
        Serial Number: 4 (0x4)
    Signature Algorithm: sha256WithRSAEncryption
        Issuer: C=US, ST=California, L=San, O=WDawson, OU=Dev, CN=WDawson Intermediate CA
        Validity
            Not Before: Jun  1 00:50:51 2017 GMT
            Not After : May 28 00:50:51 2033 GMT
        Subject: C=US, ST=California, L=San, O=WDawson, OU=Dev, CN=link site server
        Subject Public Key Info:
            Public Key Algorithm: rsaEncryption
                Public-Key: (2048 bit)
                Modulus:
                    00:b1:99:61:88:f9:67:5e:fd:ed:64:da:67:a3:bd:
                    3f:36:92:a4:58:79:bb:40:25:b1:a4:c2:b9:fc:29:
                    5a:45:ad:4e:55:6e:7a:b1:0f:77:1a:b8:58:97:1b:
                    90:cd:91:01:4e:3a:1d:7f:19:23:1f:f1:05:2e:1d:
                    12:66:62:65:6f:67:70:51:03:6f:d6:a4:6b:b3:1d:
                    32:e1:4a:21:d7:95:9a:f1:e6:dd:7c:fb:4c:74:7f:
                    51:5b:da:ed:1d:d7:01:8a:56:e0:d3:68:30:62:21:
                    be:cb:9a:94:9f:3f:aa:68:bd:b7:bf:77:3d:d5:06:
                    fb:65:8c:db:3f:80:ec:aa:4b:16:33:80:3d:7a:ed:
                    26:74:f5:85:51:7d:57:38:39:a2:66:71:cc:21:6d:
                    bd:60:83:95:47:2e:ab:c4:9c:65:fa:51:5a:11:38:
                    07:39:7f:22:61:9d:fe:1b:a8:a9:b5:0a:8f:33:6e:
                    71:76:f7:02:9b:6e:67:c5:01:e9:47:a9:d8:eb:10:
                    60:83:b4:43:c9:c2:d6:32:14:7d:9b:95:02:0b:ad:
                    43:63:67:85:18:57:a0:15:c6:86:7a:2b:74:ed:cb:
                    30:c1:5d:45:90:ef:36:37:06:89:5f:d0:f5:d2:62:
                    53:95:20:04:45:eb:22:d4:5c:9a:0c:09:4a:f6:46:
                    4b:2f
                Exponent: 65537 (0x10001)
        X509v3 extensions:
            X509v3 Basic Constraints: critical
                CA:FALSE
            X509v3 Subject Key Identifier: 
                3D:82:A2:D0:79:88:58:93:E4:71:25:59:1A:2E:42:F1:68:11:35:40
            X509v3 Authority Key Identifier: 
                keyid:F3:13:E7:F7:2F:C3:2C:0C:41:86:3C:F5:60:27:D4:1E:6E:A8:C3:B5
                DirName:/CN=WDawson Root CA/OU=Dev/O=WDawson/L=San/ST=California/C=US
                serial:03

            Authority Information Access: 
                CA Issuers - URI:http://wdawson.okta1.com:19840/certs/intermediate_ca.crt

            X509v3 Key Usage: critical
                Digital Signature, Non Repudiation, Key Encipherment, Data Encipherment
            X509v3 Extended Key Usage: critical
                TLS Web Server Authentication
            X509v3 Subject Alternative Name: 
                DNS:link.site, DNS:link.example.com
    Signature Algorithm: sha256WithRSAEncryption
         db:73:15:52:dc:47:c3:7c:06:cc:cd:d6:d8:66:1c:f6:ee:e4:
         f2:9a:c7:08:0e:a4:9c:ac:05:6a:bc:fe:9c:69:be:d8:29:1b:
         a4:7d:90:cb:4d:05:ef:06:f1:fd:6f:16:35:11:d3:55:13:ae:
         b5:06:ee:92:aa:42:f8:99:ec:24:f8:33:2b:11:76:10:12:23:
         71:44:28:e1:d8:2a:98:ee:01:cc:4d:95:9f:0f:ab:11:89:87:
         36:8c:60:f5:20:1f:10:8c:ac:9d:68:2a:d9:ca:5e:aa:f9:27:
         12:4a:b7:0d:2e:a1:80:01:14:b7:fe:e7:35:83:69:b5:2c:91:
         5d:ca:63:cf:eb:38:f0:71:c3:9c:60:2d:e2:c8:81:58:c8:1a:
         1f:11:cf:33:11:c4:c6:59:bb:d4:79:e0:16:db:42:c0:be:40:
         c6:02:de:a7:3f:80:9c:1a:f4:45:0c:55:9e:12:2e:d5:a5:e5:
         4f:2a:b3:30:eb:64:6e:96:0e:bd:d4:95:1b:a0:cd:f1:ee:85:
         83:2d:6a:4c:5a:ee:b0:fe:03:c0:4a:8c:e2:f5:e5:91:5b:2f:
         82:22:ae:2a:2b:56:97:ce:0d:b0:9e:51:dc:a2:7d:13:5c:6a:
         dd:03:42:84:e2:a7:35:55:70:e4:d7:78:9a:56:4e:a2:8f:de:
         c9:82:bb:87
-----BEGIN CERTIFICATE-----
MIIEyDCCA7CgAwIBAgIBBDANBgkqhkiG9w0BAQsFADByMQswCQYDVQQGEwJVUzET
MBEGA1UECBMKQ2FsaWZvcm5pYTEMMAoGA1UEBxMDU2FuMRAwDgYDVQQKEwdXRGF3
c29uMQwwCgYDVQQLEwNEZXYxIDAeBgNVBAMTF1dEYXdzb24gSW50ZXJtZWRpYXRl
IENBMB4XDTE3MDYwMTAwNTA1MVoXDTMzMDUyODAwNTA1MVowazELMAkGA1UEBhMC
VVMxEzARBgNVBAgTCkNhbGlmb3JuaWExDDAKBgNVBAcTA1NhbjEQMA4GA1UEChMH
V0Rhd3NvbjEMMAoGA1UECxMDRGV2MRkwFwYDVQQDExBsaW5rIHNpdGUgc2VydmVy
MIIBIjANBgkqhkiG9w0BAQEFAAOCAQ8AMIIBCgKCAQEAsZlhiPlnXv3tZNpno70/
NpKkWHm7QCWxpMK5/ClaRa1OVW56sQ93GrhYlxuQzZEBTjodfxkjH/EFLh0SZmJl
b2dwUQNv1qRrsx0y4Uoh15Wa8ebdfPtMdH9RW9rtHdcBilbg02gwYiG+y5qUnz+q
aL23v3c91Qb7ZYzbP4DsqksWM4A9eu0mdPWFUX1XODmiZnHMIW29YIOVRy6rxJxl
+lFaETgHOX8iYZ3+G6iptQqPM25xdvcCm25nxQHpR6nY6xBgg7RDycLWMhR9m5UC
C61DY2eFGFegFcaGeit07cswwV1FkO82NwaJX9D10mJTlSAEResi1FyaDAlK9kZL
LwIDAQABo4IBbjCCAWowDAYDVR0TAQH/BAIwADAdBgNVHQ4EFgQUPYKi0HmIWJPk
cSVZGi5C8WgRNUAwgZQGA1UdIwSBjDCBiYAU8xPn9y/DLAxBhjz1YCfUHm6ow7Wh
bqRsMGoxGDAWBgNVBAMTD1dEYXdzb24gUm9vdCBDQTEMMAoGA1UECxMDRGV2MRAw
DgYDVQQKEwdXRGF3c29uMQwwCgYDVQQHEwNTYW4xEzARBgNVBAgTCkNhbGlmb3Ju
aWExCzAJBgNVBAYTAlVTggEDMFQGCCsGAQUFBwEBBEgwRjBEBggrBgEFBQcwAoY4
aHR0cDovL3dkYXdzb24ub2t0YTEuY29tOjE5ODQwL2NlcnRzL2ludGVybWVkaWF0
ZV9jYS5jcnQwDgYDVR0PAQH/BAQDAgTwMBYGA1UdJQEB/wQMMAoGCCsGAQUFBwMB
MCYGA1UdEQQfMB2CCWxpbmsuc2l0ZYIQbGluay5leGFtcGxlLmNvbTANBgkqhkiG
9w0BAQsFAAOCAQEA23MVUtxHw3wGzM3W2GYc9u7k8prHCA6knKwFarz+nGm+2Ckb
pH2Qy00F7wbx/W8WNRHTVROutQbukqpC+JnsJPgzKxF2EBIjcUQo4dgqmO4BzE2V
nw+rEYmHNoxg9SAfEIysnWgq2cpeqvknEkq3DS6hgAEUt/7nNYNptSyRXcpjz+s4
8HHDnGAt4siBWMgaHxHPMxHExlm71HngFttCwL5AxgLepz+AnBr0RQxVnhIu1aXl
TyqzMOtkbpYOvdSVG6DN8e6Fgy1qTFrusP4DwEqM4vXlkVsvgiKuKitWl84NsJ5R
3KJ9E1xq3QNChOKnNVVw5Nd4mlZOoo/eyYK7hw==
-----END CERTIFICATE-----
