Certificate:
    Data:
        Version: 3 (0x2)
        Serial Number: 5 (0x5)
    Signature Algorithm: sha256WithRSAEncryption
        Issuer: C=US, ST=California, L=San, O=WDawson, OU=Dev, CN=WDawson Intermediate CA
        Validity
            Not Before: Jun  6 23:03:48 2017 GMT
            Not After : Jun  2 23:03:48 2033 GMT
        Subject: C=US, ST=California, L=San, O=WDawson, OU=Dev, CN=link-site-ca-wdawson
        Subject Public Key Info:
            Public Key Algorithm: rsaEncryption
                Public-Key: (2048 bit)
                Modulus:
                    00:d5:4f:c3:15:18:0c:66:7b:03:4e:1b:fb:ad:80:
                    d0:d6:17:28:3b:dc:d6:85:ca:3f:3c:59:ca:4d:3a:
                    62:37:2a:e8:de:26:6f:87:22:b7:60:c3:91:8b:a4:
                    ec:83:c8:2c:91:bd:29:d6:9b:65:a2:cd:4d:f4:07:
                    4f:a6:d8:1a:bc:33:3f:62:f5:37:5f:dc:5a:90:57:
                    a0:e5:33:8f:7c:d8:e0:07:25:05:81:28:8a:d8:20:
                    a4:b8:ed:49:ef:33:44:2c:56:58:40:4a:a0:95:c1:
                    a0:46:7b:af:f3:f6:35:8b:f7:cf:c2:33:ba:a7:14:
                    6c:46:02:65:f4:e1:82:4c:c1:35:b1:19:5f:c1:4c:
                    45:39:1a:aa:1c:bf:0b:b3:20:79:25:f2:5c:3f:1a:
                    3a:3f:93:04:d3:03:a4:a8:65:08:bd:29:60:92:2a:
                    41:59:bb:21:5b:7e:0f:eb:4b:4f:6c:80:43:4b:6c:
                    d5:38:1a:54:4a:a0:22:28:8a:d2:5a:62:cd:7e:75:
                    68:ff:5e:b1:db:2d:45:0d:ff:3f:eb:45:44:f3:9e:
                    9c:07:16:98:e5:cf:75:b1:3e:8d:a9:37:28:e3:56:
                    95:d7:6a:77:8b:70:bf:16:e0:e1:8a:fe:a9:02:d8:
                    cf:a0:8f:36:39:08:8e:ec:00:66:5a:01:73:9b:8c:
                    d7:c5
                Exponent: 65537 (0x10001)
        X509v3 extensions:
            X509v3 Basic Constraints: critical
                CA:FALSE
            X509v3 Subject Key Identifier: 
                C4:C7:C7:D9:DA:BB:6C:38:EB:6D:61:AA:E0:4A:C6:01:14:66:B4:C6
            X509v3 Authority Key Identifier: 
                keyid:F3:13:E7:F7:2F:C3:2C:0C:41:86:3C:F5:60:27:D4:1E:6E:A8:C3:B5
                DirName:/CN=WDawson Root CA/OU=Dev/O=WDawson/L=San/ST=California/C=US
                serial:03

            Authority Information Access: 
                CA Issuers - URI:http://wdawson.okta1.com:19840/certs/intermediate_ca.crt

            X509v3 Key Usage: critical
                Digital Signature, Non Repudiation, Key Encipherment, Data Encipherment
            X509v3 Extended Key Usage: critical
                TLS Web Server Authentication
            X509v3 Subject Alternative Name: 
                DNS:link.site, DNS:link.example.com, DNS:wdawson.okta1.com
    Signature Algorithm: sha256WithRSAEncryption
         3e:68:b1:ab:53:7d:fe:d4:17:0d:3d:73:46:b5:df:ad:0c:96:
         91:30:19:98:43:83:1a:46:20:7b:81:6e:f7:b5:84:c5:91:40:
         dc:76:3f:c2:42:45:21:4b:3f:a0:64:f1:c2:97:4e:3b:0e:12:
         11:3e:9f:50:90:6e:d5:ea:a6:9e:7a:fd:56:1e:44:d2:22:f5:
         8b:42:f3:c4:e2:5c:5a:75:61:ad:c9:3e:cf:18:7f:1e:81:83:
         75:b4:68:44:c9:c9:38:4d:09:04:31:63:ef:53:9a:37:ae:f1:
         2b:c8:83:20:d8:bb:f3:4f:5f:c7:b9:86:04:12:87:a2:d0:53:
         1f:ce:2e:78:1e:8c:f4:f2:34:78:f8:32:cd:b1:d3:47:e0:91:
         f7:d5:98:7d:5a:24:f0:88:5f:99:db:f8:e5:f7:2f:2c:67:6c:
         86:65:be:b2:3e:e4:d5:fd:9c:c8:6f:88:ef:f6:4a:95:aa:02:
         53:6a:78:d1:c4:c3:07:60:1a:0e:df:53:5d:fc:e6:e8:78:74:
         b4:60:3a:64:a2:de:e0:12:37:61:fa:1a:09:05:f4:8c:e2:3e:
         ac:57:23:ff:87:85:7c:54:a1:9a:80:ef:94:58:4b:5b:d2:d3:
         b6:a3:f8:fb:90:d6:6a:67:e4:a0:e9:d4:58:46:7d:46:21:eb:
         4b:dd:7e:d4
-----BEGIN CERTIFICATE-----
MIIE3zCCA8egAwIBAgIBBTANBgkqhkiG9w0BAQsFADByMQswCQYDVQQGEwJVUzET
MBEGA1UECBMKQ2FsaWZvcm5pYTEMMAoGA1UEBxMDU2FuMRAwDgYDVQQKEwdXRGF3
c29uMQwwCgYDVQQLEwNEZXYxIDAeBgNVBAMTF1dEYXdzb24gSW50ZXJtZWRpYXRl
IENBMB4XDTE3MDYwNjIzMDM0OFoXDTMzMDYwMjIzMDM0OFowbzELMAkGA1UEBhMC
VVMxEzARBgNVBAgTCkNhbGlmb3JuaWExDDAKBgNVBAcTA1NhbjEQMA4GA1UEChMH
V0Rhd3NvbjEMMAoGA1UECxMDRGV2MR0wGwYDVQQDExRsaW5rLXNpdGUtY2Etd2Rh
d3NvbjCCASIwDQYJKoZIhvcNAQEBBQADggEPADCCAQoCggEBANVPwxUYDGZ7A04b
+62A0NYXKDvc1oXKPzxZyk06Yjcq6N4mb4cit2DDkYuk7IPILJG9KdabZaLNTfQH
T6bYGrwzP2L1N1/cWpBXoOUzj3zY4AclBYEoitggpLjtSe8zRCxWWEBKoJXBoEZ7
r/P2NYv3z8IzuqcUbEYCZfThgkzBNbEZX8FMRTkaqhy/C7MgeSXyXD8aOj+TBNMD
pKhlCL0pYJIqQVm7IVt+D+tLT2yAQ0ts1TgaVEqgIiiK0lpizX51aP9esdstRQ3/
P+tFRPOenAcWmOXPdbE+jak3KONWlddqd4twvxbg4Yr+qQLYz6CPNjkIjuwAZloB
c5uM18UCAwEAAaOCAYEwggF9MAwGA1UdEwEB/wQCMAAwHQYDVR0OBBYEFMTHx9na
u2w4621hquBKxgEUZrTGMIGUBgNVHSMEgYwwgYmAFPMT5/cvwywMQYY89WAn1B5u
qMO1oW6kbDBqMRgwFgYDVQQDEw9XRGF3c29uIFJvb3QgQ0ExDDAKBgNVBAsTA0Rl
djEQMA4GA1UEChMHV0Rhd3NvbjEMMAoGA1UEBxMDU2FuMRMwEQYDVQQIEwpDYWxp
Zm9ybmlhMQswCQYDVQQGEwJVU4IBAzBUBggrBgEFBQcBAQRIMEYwRAYIKwYBBQUH
MAKGOGh0dHA6Ly93ZGF3c29uLm9rdGExLmNvbToxOTg0MC9jZXJ0cy9pbnRlcm1l
ZGlhdGVfY2EuY3J0MA4GA1UdDwEB/wQEAwIE8DAWBgNVHSUBAf8EDDAKBggrBgEF
BQcDATA5BgNVHREEMjAwgglsaW5rLnNpdGWCEGxpbmsuZXhhbXBsZS5jb22CEXdk
YXdzb24ub2t0YTEuY29tMA0GCSqGSIb3DQEBCwUAA4IBAQA+aLGrU33+1BcNPXNG
td+tDJaRMBmYQ4MaRiB7gW73tYTFkUDcdj/CQkUhSz+gZPHCl047DhIRPp9QkG7V
6qaeev1WHkTSIvWLQvPE4lxadWGtyT7PGH8egYN1tGhEyck4TQkEMWPvU5o3rvEr
yIMg2LvzT1/HuYYEEoei0FMfzi54Hoz08jR4+DLNsdNH4JH31Zh9WiTwiF+Z2/jl
9y8sZ2yGZb6yPuTV/ZzIb4jv9kqVqgJTanjRxMMHYBoO31Nd/OboeHS0YDpkot7g
Ejdh+hoJBfSM4j6sVyP/h4V8VKGagO+UWEtb0tO2o/j7kNZqZ+Sg6dRYRn1GIetL
3X7U
-----END CERTIFICATE-----
